target datalayout = "e-m:e-p270:32:32-p271:32:32-p272:64:64-i64:64-i128:128-f80:128-n8:16:32:64-S128"
target triple = "x86_64-pc-linux-gnu"

%struct.BufferUsage = type { i64, i64, i64, i64, i64, i64, i64, i64, i64, i64, %struct.instr_time, %struct.instr_time, %struct.instr_time, %struct.instr_time, %struct.instr_time, %struct.instr_time }
%struct.instr_time = type { i64 }
%struct.ExplainState = type { ptr, i8, i8, i8, i8, i8, i8, i8, i8, i8, i8, i32, i32, i32, ptr, ptr, ptr, ptr, ptr, ptr, i8, i32, ptr }
%struct.StringInfoData = type { ptr, i32, i32, i32 }
%struct.SerializeMetrics = type { i64, %struct.instr_time, %struct.BufferUsage }
%struct._DestReceiver = type { ptr, ptr, ptr, ptr, i32 }
%struct.SerializeDestReceiver = type { %struct._DestReceiver, ptr, i8, ptr, i32, ptr, ptr, %struct.StringInfoData, %struct.SerializeMetrics }

@CurrentMemoryContext = external global ptr, align 8
@.str.398 = private unnamed_addr constant [22 x i8] c"SerializeTupleReceive\00", align 1

; Function Attrs: nounwind uwtable
define internal void @serializeAnalyzeStartup(ptr noundef %0, i32 noundef %1, ptr noundef %2) #0 {
  %4 = alloca ptr, align 8
  %5 = alloca i32, align 4
  %6 = alloca ptr, align 8
  %7 = alloca ptr, align 8
  %8 = alloca i32, align 4
  store ptr %0, ptr %4, align 8
  store i32 %1, ptr %5, align 4
  store ptr %2, ptr %6, align 8
  call void @llvm.lifetime.start.p0(i64 8, ptr %7) #10
  %9 = load ptr, ptr %4, align 8
  store ptr %9, ptr %7, align 8
  %10 = load ptr, ptr %7, align 8
  %11 = getelementptr inbounds nuw %struct.SerializeDestReceiver, ptr %10, i32 0, i32 1
  %12 = load ptr, ptr %11, align 8
  %13 = getelementptr inbounds nuw %struct.ExplainState, ptr %12, i32 0, i32 11
  %14 = load i32, ptr %13, align 4
  switch i32 %14, label %22 [
    i32 0, label %15
    i32 1, label %16
    i32 2, label %19
  ]

15:                                               ; preds = %3
  br label %22

16:                                               ; preds = %3
  %17 = load ptr, ptr %7, align 8
  %18 = getelementptr inbounds nuw %struct.SerializeDestReceiver, ptr %17, i32 0, i32 2
  store i8 0, ptr %18, align 8
  br label %22

19:                                               ; preds = %3
  %20 = load ptr, ptr %7, align 8
  %21 = getelementptr inbounds nuw %struct.SerializeDestReceiver, ptr %20, i32 0, i32 2
  store i8 1, ptr %21, align 8
  br label %22

22:                                               ; preds = %3, %19, %16, %15
  br label %23

23:                                               ; preds = %22
  br label %24

24:                                               ; preds = %23
  br label %25

25:                                               ; preds = %24
  store i32 1, ptr %8, align 4
  %26 = load ptr, ptr @CurrentMemoryContext, align 8
  %27 = call ptr @AllocSetContextCreateInternal(ptr noundef %26, ptr noundef @.str.398, i64 noundef 0, i64 noundef 8192, i64 noundef 8388608)
  %28 = load ptr, ptr %7, align 8
  %29 = getelementptr inbounds nuw %struct.SerializeDestReceiver, ptr %28, i32 0, i32 6
  store ptr %27, ptr %29, align 8
  %30 = load ptr, ptr %7, align 8
  %31 = getelementptr inbounds nuw %struct.SerializeDestReceiver, ptr %30, i32 0, i32 7
  call void @initStringInfo(ptr noundef %31)
  %32 = load ptr, ptr %7, align 8
  %33 = getelementptr inbounds nuw %struct.SerializeDestReceiver, ptr %32, i32 0, i32 8
  call void @llvm.memset.p0.i64(ptr align 8 %33, i8 0, i64 144, i1 false)
  %34 = load ptr, ptr %7, align 8
  %35 = getelementptr inbounds nuw %struct.SerializeDestReceiver, ptr %34, i32 0, i32 8
  %36 = getelementptr inbounds nuw %struct.SerializeMetrics, ptr %35, i32 0, i32 1
  %37 = getelementptr inbounds nuw %struct.instr_time, ptr %36, i32 0, i32 0
  store i64 0, ptr %37, align 8
  call void @llvm.lifetime.end.p0(i64 8, ptr %7) #10
  ret void
}