; Function Attrs: nounwind uwtable
define internal void @serializeAnalyzeStartup(ptr noundef initializes((80, 88)) %0, i32 %1, ptr readnone captures(none) %2) #0 {
  %4 = getelementptr inbounds nuw i8, ptr %0, i64 40
  %5 = load ptr, ptr %4, align 8
  %6 = getelementptr inbounds nuw i8, ptr %5, i64 20
  %7 = load i32, ptr %6, align 4
  switch i32 %7, label %10 [
    i32 2, label %8
    i32 1, label %.sink.split
  ]

8:                                                ; preds = %3
  br label %.sink.split

.sink.split:                                      ; preds = %3, %8
  %.sink = phi i8 [ 1, %8 ], [ 0, %3 ]
  %9 = getelementptr inbounds nuw i8, ptr %0, i64 48
  store i8 %.sink, ptr %9, align 8
  br label %10

10:                                               ; preds = %.sink.split, %3
  %11 = load ptr, ptr @CurrentMemoryContext, align 8
  %12 = tail call ptr @AllocSetContextCreateInternal(ptr noundef %11, ptr noundef nonnull @.str.398, i64 noundef 0, i64 noundef 8192, i64 noundef 8388608) #13
  %13 = getelementptr inbounds nuw i8, ptr %0, i64 80
  store ptr %12, ptr %13, align 8
  %14 = getelementptr inbounds nuw i8, ptr %0, i64 88
  tail call void @initStringInfo(ptr noundef nonnull %14) #13
  %15 = getelementptr inbounds nuw i8, ptr %0, i64 112
  tail call void @llvm.memset.p0.i64(ptr noundef nonnull align 8 dereferenceable(144) %15, i8 0, i64 144, i1 false)
  ret void
}